target datalayout = "e-m:e-p270:32:32-p271:32:32-p272:64:64-i64:64-i128:128-f80:128-n8:16:32:64-S128"
target triple = "x86_64-pc-linux-gnu"

%struct.timespec = type { i64, i64 }
%struct.stat = type { i64, i64, i64, i32, i32, i32, i32, i64, i64, i64, i64, %struct.timespec, %struct.timespec, %struct.timespec, [3 x i64] }

; Function Attrs: mustprogress nounwind uwtable
define hidden noundef i32 @_ZN2os4statEPKcP4stat(ptr noundef %0, ptr noundef %1) #1 align 2 {
  %3 = alloca ptr, align 8
  %4 = alloca ptr, align 8
  store ptr %0, ptr %3, align 8
  store ptr %1, ptr %4, align 8
  %5 = load ptr, ptr %3, align 8
  %6 = load ptr, ptr %4, align 8
  %7 = call i32 @stat64(ptr noundef %5, ptr noundef %6) #7
  ret i32 %7
}

; Function Attrs: mustprogress nounwind uwtable
define hidden noundef zeroext i1 @_ZN2os10same_filesEPKcS1_(ptr noundef %0, ptr noundef %1) #1 align 2 {
  %3 = alloca i1, align 1
  %4 = alloca ptr, align 8
  %5 = alloca ptr, align 8
  %6 = alloca i8, align 1
  %7 = alloca %struct.stat, align 8
  %8 = alloca %struct.stat, align 8
  store ptr %0, ptr %4, align 8
  store ptr %1, ptr %5, align 8
  %9 = load ptr, ptr %4, align 8
  %10 = icmp eq ptr %9, null
  br i1 %10, label %11, label %15

11:                                               ; preds = %2
  %12 = load ptr, ptr %5, align 8
  %13 = icmp eq ptr %12, null
  br i1 %13, label %14, label %15

14:                                               ; preds = %11
  store i1 true, ptr %3, align 1
  br label %54

15:                                               ; preds = %11, %2
  %16 = load ptr, ptr %4, align 8
  %17 = icmp eq ptr %16, null
  br i1 %17, label %21, label %18

18:                                               ; preds = %15
  %19 = load ptr, ptr %5, align 8
  %20 = icmp eq ptr %19, null
  br i1 %20, label %21, label %22

21:                                               ; preds = %18, %15
  store i1 false, ptr %3, align 1
  br label %54

22:                                               ; preds = %18
  %23 = load ptr, ptr %4, align 8
  %24 = load ptr, ptr %5, align 8
  %25 = call i32 @strcmp(ptr noundef %23, ptr noundef %24) #15
  %26 = icmp eq i32 %25, 0
  br i1 %26, label %27, label %28

27:                                               ; preds = %22
  store i1 true, ptr %3, align 1
  br label %54

28:                                               ; preds = %22
  store i8 0, ptr %6, align 1
  %29 = load ptr, ptr %4, align 8
  %30 = call noundef i32 @_ZN2os4statEPKcP4stat(ptr noundef %29, ptr noundef %7)
  %31 = icmp slt i32 %30, 0
  br i1 %31, label %32, label %33

32:                                               ; preds = %28
  store i1 false, ptr %3, align 1
  br label %54

33:                                               ; preds = %28
  %34 = load ptr, ptr %5, align 8
  %35 = call noundef i32 @_ZN2os4statEPKcP4stat(ptr noundef %34, ptr noundef %8)
  %36 = icmp slt i32 %35, 0
  br i1 %36, label %37, label %38

37:                                               ; preds = %33
  store i1 false, ptr %3, align 1
  br label %54

38:                                               ; preds = %33
  %39 = getelementptr inbounds %struct.stat, ptr %7, i32 0, i32 0
  %40 = load i64, ptr %39, align 8
  %41 = getelementptr inbounds %struct.stat, ptr %8, i32 0, i32 0
  %42 = load i64, ptr %41, align 8
  %43 = icmp eq i64 %40, %42
  br i1 %43, label %44, label %51

44:                                               ; preds = %38
  %45 = getelementptr inbounds %struct.stat, ptr %7, i32 0, i32 1
  %46 = load i64, ptr %45, align 8
  %47 = getelementptr inbounds %struct.stat, ptr %8, i32 0, i32 1
  %48 = load i64, ptr %47, align 8
  %49 = icmp eq i64 %46, %48
  br i1 %49, label %50, label %51

50:                                               ; preds = %44
  store i8 1, ptr %6, align 1
  br label %51

51:                                               ; preds = %50, %44, %38
  %52 = load i8, ptr %6, align 1
  %53 = trunc i8 %52 to i1
  store i1 %53, ptr %3, align 1
  br label %54

54:                                               ; preds = %51, %37, %32, %27, %21, %14
  %55 = load i1, ptr %3, align 1
  ret i1 %55
}