; Function Attrs: mustprogress nofree nounwind uwtable
define hidden noundef zeroext i1 @_ZN2os10same_filesEPKcS1_(ptr noundef readonly %0, ptr noundef readonly %1) local_unnamed_addr #11 align 2 {
  %3 = alloca %struct.stat, align 8
  %4 = alloca %struct.stat, align 8
  %5 = icmp eq ptr %0, null
  %6 = icmp eq ptr %1, null
  %or.cond = and i1 %5, %6
  br i1 %or.cond, label %27, label %7

7:                                                ; preds = %2
  %or.cond3 = or i1 %5, %6
  br i1 %or.cond3, label %27, label %8

8:                                                ; preds = %7
  %9 = tail call i32 @strcmp(ptr noundef nonnull dereferenceable(1) %0, ptr noundef nonnull dereferenceable(1) %1) #27
  %10 = icmp eq i32 %9, 0
  br i1 %10, label %27, label %11

11:                                               ; preds = %8
  %12 = call noundef i32 @stat64(ptr noundef nonnull readonly %0, ptr noundef nonnull %3) #25
  %13 = icmp slt i32 %12, 0
  br i1 %13, label %27, label %14

14:                                               ; preds = %11
  %15 = call noundef i32 @stat64(ptr noundef nonnull readonly %1, ptr noundef nonnull %4) #25
  %16 = icmp slt i32 %15, 0
  br i1 %16, label %27, label %17

17:                                               ; preds = %14
  %18 = load i64, ptr %3, align 8
  %19 = load i64, ptr %4, align 8
  %20 = icmp eq i64 %18, %19
  br i1 %20, label %21, label %27

21:                                               ; preds = %17
  %22 = getelementptr inbounds i8, ptr %3, i64 8
  %23 = load i64, ptr %22, align 8
  %24 = getelementptr inbounds i8, ptr %4, i64 8
  %25 = load i64, ptr %24, align 8
  %26 = icmp eq i64 %23, %25
  br label %27

27:                                               ; preds = %21, %17, %14, %11, %8, %7, %2
  %.012 = phi i1 [ true, %2 ], [ false, %7 ], [ true, %8 ], [ false, %11 ], [ false, %14 ], [ false, %17 ], [ %26, %21 ]
  ret i1 %.012
}